; Function Attrs: nofree norecurse nosync nounwind memory(readwrite, inaccessiblemem: none) uwtable
define noundef ptr @Gia_ManFraigMarkAnd(ptr noundef readonly captures(none) %0, ptr noundef %1) local_unnamed_addr #6 {
  %.0.val15 = load i64, ptr %1, align 4
  %3 = and i64 %.0.val15, 2147483648
  %.not.i16 = icmp ne i64 %3, 0
  %4 = and i64 %.0.val15, 536870911
  %5 = icmp eq i64 %4, 536870911
  %narrow.i.not17 = or i1 %.not.i16, %5
  br i1 %narrow.i.not17, label %._crit_edge, label %.lr.ph

.lr.ph:                                           ; preds = %2
  %6 = getelementptr inbounds nuw i8, ptr %0, i64 616
  %7 = load ptr, ptr %6, align 8, !tbaa !3
  %8 = getelementptr i8, ptr %0, i64 32
  %.val.i = load ptr, ptr %8, align 8, !tbaa !28
  %9 = ptrtoint ptr %.val.i to i64
  %10 = getelementptr inbounds nuw i8, ptr %0, i64 176
  %.pre = load i32, ptr %10, align 8, !tbaa !30
  br label %11

11:                                               ; preds = %.lr.ph, %39
  %12 = phi i32 [ %.pre, %.lr.ph ], [ %40, %39 ]
  %13 = phi i64 [ %4, %.lr.ph ], [ %43, %39 ]
  %.018 = phi ptr [ %1, %.lr.ph ], [ %41, %39 ]
  %14 = ptrtoint ptr %.018 to i64
  %15 = sub i64 %14, %9
  %16 = sdiv exact i64 %15, 12
  %sext.i = shl i64 %16, 32
  %17 = ashr exact i64 %sext.i, 30
  %18 = getelementptr inbounds i8, ptr %7, i64 %17
  %19 = load i32, ptr %18, align 4, !tbaa !29
  %.not = icmp eq i32 %19, %12
  br i1 %.not, label %20, label %39

20:                                               ; preds = %11
  %21 = sub nsw i64 0, %13
  %22 = getelementptr inbounds %struct.Gia_Obj_t_, ptr %.018, i64 %21
  %23 = ptrtoint ptr %22 to i64
  %24 = sub i64 %23, %9
  %25 = sdiv exact i64 %24, 12
  %sext.i11 = shl i64 %25, 32
  %26 = ashr exact i64 %sext.i11, 30
  %27 = getelementptr inbounds i8, ptr %7, i64 %26
  store i32 %12, ptr %27, align 4, !tbaa !29
  %28 = load i64, ptr %.018, align 4
  %29 = lshr i64 %28, 32
  %30 = and i64 %29, 536870911
  %31 = sub nsw i64 0, %30
  %32 = getelementptr inbounds %struct.Gia_Obj_t_, ptr %.018, i64 %31
  %33 = load i32, ptr %10, align 8, !tbaa !30
  %34 = ptrtoint ptr %32 to i64
  %35 = sub i64 %34, %9
  %36 = sdiv exact i64 %35, 12
  %sext.i13 = shl i64 %36, 32
  %37 = ashr exact i64 %sext.i13, 30
  %38 = getelementptr inbounds i8, ptr %7, i64 %37
  store i32 %33, ptr %38, align 4, !tbaa !29
  br label %39

39:                                               ; preds = %11, %20
  %40 = phi i32 [ %12, %11 ], [ %33, %20 ]
  %41 = getelementptr inbounds i8, ptr %.018, i64 -12
  %.0.val = load i64, ptr %41, align 4
  %42 = and i64 %.0.val, 2147483648
  %.not.i = icmp ne i64 %42, 0
  %43 = and i64 %.0.val, 536870911
  %44 = icmp eq i64 %43, 536870911
  %narrow.i.not = or i1 %.not.i, %44
  br i1 %narrow.i.not, label %._crit_edge, label %11, !llvm.loop !66

._crit_edge:                                      ; preds = %39, %2
  %.0.lcssa = phi ptr [ %1, %2 ], [ %41, %39 ]
  ret ptr %.0.lcssa
}